; Function Attrs: mustprogress nounwind uwtable
define dso_local void @_ZN5clang14TextNodeDumper18VisitObjCBoxedExprEPKNS_13ObjCBoxedExprE(ptr nocapture noundef nonnull readonly align 8 dereferenceable(1168) %0, ptr nocapture noundef readonly %1) local_unnamed_addr #0 align 2 {
  %3 = alloca %"class.clang::Selector", align 8
  %4 = getelementptr inbounds nuw i8, ptr %1, i64 24
  %5 = load ptr, ptr %4, align 8
  %.not = icmp eq ptr %5, null
  br i1 %.not, label %24, label %6

6:                                                ; preds = %2
  %7 = getelementptr inbounds nuw i8, ptr %0, i64 1096
  %8 = load ptr, ptr %7, align 8
  %9 = getelementptr inbounds nuw i8, ptr %8, i64 24
  %10 = load ptr, ptr %9, align 8
  %11 = getelementptr inbounds nuw i8, ptr %8, i64 32
  %12 = load ptr, ptr %11, align 8
  %13 = ptrtoint ptr %10 to i64
  %14 = ptrtoint ptr %12 to i64
  %15 = sub i64 %13, %14
  %16 = icmp ult i64 %15, 10
  br i1 %16, label %17, label %19

17:                                               ; preds = %6
  %18 = tail call noundef nonnull align 8 dereferenceable(48) ptr @_ZN4llvm11raw_ostream5writeEPKcm(ptr noundef nonnull align 8 dereferenceable(48) %8, ptr noundef nonnull @.str.629, i64 noundef 10) #18
  br label %_ZN4llvm11raw_ostreamlsEPKc.exit

19:                                               ; preds = %6
  tail call void @llvm.memcpy.p0.p0.i64(ptr noundef nonnull align 1 dereferenceable(10) %12, ptr noundef nonnull align 1 dereferenceable(10) @.str.629, i64 10, i1 false)
  %20 = load ptr, ptr %11, align 8
  %21 = getelementptr inbounds i8, ptr %20, i64 10
  store ptr %21, ptr %11, align 8
  br label %_ZN4llvm11raw_ostreamlsEPKc.exit

_ZN4llvm11raw_ostreamlsEPKc.exit:                 ; preds = %17, %19
  %22 = getelementptr inbounds nuw i8, ptr %5, i64 40
  %.sroa.0.0.copyload.i.i = load i64, ptr %22, align 8
  store i64 %.sroa.0.0.copyload.i.i, ptr %3, align 8
  %23 = load ptr, ptr %7, align 8
  call void @_ZNK5clang8Selector5printERN4llvm11raw_ostreamE(ptr noundef nonnull align 8 dereferenceable(8) %3, ptr noundef nonnull align 8 dereferenceable(48) %23) #18
  br label %24

24:                                               ; preds = %_ZN4llvm11raw_ostreamlsEPKc.exit, %2
  ret void
}